CCS PCM C Compiler, Version 5.101, 43599               04-May-26 00:11

               Filename:   C:\Users\DELL\Documents\GitProjects\micro_processor_controller\Code_C\main.lst

               ROM used:   914 words (11%)
                           Largest free fragment is 2048
               RAM used:   31 (8%) at main() level
                           42 (11%) worst case
               Stack used: 7 locations (3 in main + 4 for interrupts)
               Stack size: 8

*
0000:  MOVLW  02
0001:  MOVWF  0A
0002:  GOTO   2D5
0003:  NOP
0004:  MOVWF  7F
0005:  SWAPF  03,W
0006:  CLRF   03
0007:  MOVWF  21
0008:  MOVF   0A,W
0009:  MOVWF  20
000A:  CLRF   0A
000B:  MOVF   04,W
000C:  MOVWF  22
000D:  MOVF   77,W
000E:  MOVWF  23
000F:  MOVF   78,W
0010:  MOVWF  24
0011:  MOVF   79,W
0012:  MOVWF  25
0013:  MOVF   7A,W
0014:  MOVWF  26
0015:  BCF    03.7
0016:  BCF    03.5
0017:  BTFSS  0B.4
0018:  GOTO   01B
0019:  BTFSC  0B.1
001A:  GOTO   02C
001B:  MOVF   22,W
001C:  MOVWF  04
001D:  MOVF   23,W
001E:  MOVWF  77
001F:  MOVF   24,W
0020:  MOVWF  78
0021:  MOVF   25,W
0022:  MOVWF  79
0023:  MOVF   26,W
0024:  MOVWF  7A
0025:  MOVF   20,W
0026:  MOVWF  0A
0027:  SWAPF  21,W
0028:  MOVWF  03
0029:  SWAPF  7F,F
002A:  SWAPF  7F,W
002B:  RETFIE
002C:  BCF    0A.3
002D:  BCF    0A.4
002E:  GOTO   106
.................... #include <16F887.h>
.................... //////////// Standard Header file for the PIC16F887 device ////////////////
.................... ///////////////////////////////////////////////////////////////////////////
.................... ////        (C) Copyright 1996, 2020 Custom Computer Services          ////
.................... //// This source code may only be used by licensed users of the CCS C  ////
.................... //// compiler.  This source code may only be distributed to other      ////
.................... //// licensed users of the CCS C compiler.  No other use, reproduction ////
.................... //// or distribution is permitted without written permission.          ////
.................... //// Derivative programs created using this software in object code    ////
.................... //// form are not restricted in any way.                               ////
.................... ///////////////////////////////////////////////////////////////////////////
.................... #device PIC16F887
002F:  BCF    0A.0
0030:  BCF    0A.1
0031:  BCF    0A.2
0032:  ADDWF  02,F
0033:  RETLW  31
0034:  RETLW  32
0035:  RETLW  33
0036:  RETLW  34
0037:  RETLW  00
*
00DE:  BCF    0A.0
00DF:  BCF    0A.1
00E0:  BCF    0A.2
00E1:  ADDWF  02,F
00E2:  GOTO   061
00E3:  GOTO   067
00E4:  GOTO   06D
00E5:  GOTO   07B
00E6:  GOTO   091
00E7:  GOTO   09F
00E8:  GOTO   0AD
00E9:  GOTO   0BD
00EA:  GOTO   0C9
.................... 
.................... #list
.................... 
.................... #fuses HS,NOWDT,NOPROTECT,NOLVP
.................... #use delay(clock=20000000)
*
0038:  MOVLW  44
0039:  MOVWF  04
003A:  BCF    03.7
003B:  MOVF   00,W
003C:  BTFSC  03.2
003D:  GOTO   04B
003E:  MOVLW  06
003F:  MOVWF  78
0040:  CLRF   77
0041:  DECFSZ 77,F
0042:  GOTO   041
0043:  DECFSZ 78,F
0044:  GOTO   040
0045:  MOVLW  7B
0046:  MOVWF  77
0047:  DECFSZ 77,F
0048:  GOTO   047
0049:  DECFSZ 00,F
004A:  GOTO   03E
004B:  RETURN
004C:  MOVLW  03
004D:  SUBWF  44,F
004E:  BTFSS  03.0
004F:  GOTO   05A
0050:  MOVLW  44
0051:  MOVWF  04
0052:  BCF    03.7
0053:  MOVF   00,W
0054:  BTFSC  03.2
0055:  GOTO   05A
0056:  GOTO   058
0057:  GOTO   058
0058:  DECFSZ 00,F
0059:  GOTO   057
005A:  RETURN
.................... #use fast_io(B)
.................... #use fast_io(C)
.................... #use fast_io(D)
.................... 
.................... #byte ANSEL  = 0x188
.................... #byte ANSELH = 0x189
.................... 
.................... #define PASS_LEN  4
.................... #define MAX_WRONG 3
.................... const char PASSWORD[] = "1234";
.................... 
.................... // ==================== HARDWARE MACROS ====================
.................... #define GREEN_ON     output_high(PIN_B1)
.................... #define GREEN_OFF    output_low(PIN_B1)
.................... #define RED_ON       output_high(PIN_B2)
.................... #define RED_OFF      output_low(PIN_B2)
.................... #define BUZZER_ON    output_high(PIN_C1)
.................... #define BUZZER_OFF   output_low(PIN_C1)
.................... #define SERVO_HIGH   output_high(PIN_C2)
.................... #define SERVO_LOW    output_low(PIN_C2)
.................... 
.................... // ==================== READABLE ACTIONS ====================
.................... typedef enum {
....................     ACTION_KEY_TICK,
....................     ACTION_DELETE_TICK,
....................     ACTION_SUCCESS_BEEP,
....................     ACTION_ERROR_BEEP,
....................     ACTION_READY_BEEP,
....................     ACTION_REMINDER_CHIRP,
....................     ACTION_ALARM_CHIRP,
....................     ACTION_SERVO_OPEN,
....................     ACTION_SERVO_CLOSE
.................... } ActionType;
.................... 
.................... void do_action(ActionType act) {
....................    switch(act) {
005B:  MOVF   41,W
005C:  ADDLW  F7
005D:  BTFSC  03.0
005E:  GOTO   0DD
005F:  ADDLW  09
0060:  GOTO   0DE
....................       case ACTION_KEY_TICK:      BUZZER_ON; delay_ms(5);  BUZZER_OFF; break;
0061:  BSF    07.1
0062:  MOVLW  05
0063:  MOVWF  44
0064:  CALL   038
0065:  BCF    07.1
0066:  GOTO   0DD
....................       case ACTION_DELETE_TICK:   BUZZER_ON; delay_ms(15); BUZZER_OFF; break;
0067:  BSF    07.1
0068:  MOVLW  0F
0069:  MOVWF  44
006A:  CALL   038
006B:  BCF    07.1
006C:  GOTO   0DD
....................       case ACTION_SUCCESS_BEEP:  BUZZER_ON; delay_ms(40); BUZZER_OFF; delay_ms(40);
006D:  BSF    07.1
006E:  MOVLW  28
006F:  MOVWF  44
0070:  CALL   038
0071:  BCF    07.1
0072:  MOVLW  28
0073:  MOVWF  44
0074:  CALL   038
....................                                  BUZZER_ON; delay_ms(40); BUZZER_OFF; break;
0075:  BSF    07.1
0076:  MOVLW  28
0077:  MOVWF  44
0078:  CALL   038
0079:  BCF    07.1
007A:  GOTO   0DD
....................       case ACTION_ERROR_BEEP:    BUZZER_ON; delay_ms(400); BUZZER_OFF; delay_ms(200);
007B:  BSF    07.1
007C:  MOVLW  02
007D:  MOVWF  43
007E:  MOVLW  C8
007F:  MOVWF  44
0080:  CALL   038
0081:  DECFSZ 43,F
0082:  GOTO   07E
0083:  BCF    07.1
0084:  MOVLW  C8
0085:  MOVWF  44
0086:  CALL   038
....................                                  BUZZER_ON; delay_ms(400); BUZZER_OFF; break;
0087:  BSF    07.1
0088:  MOVLW  02
0089:  MOVWF  43
008A:  MOVLW  C8
008B:  MOVWF  44
008C:  CALL   038
008D:  DECFSZ 43,F
008E:  GOTO   08A
008F:  BCF    07.1
0090:  GOTO   0DD
....................       case ACTION_READY_BEEP:    BUZZER_ON; delay_ms(30); BUZZER_OFF; delay_ms(50);
0091:  BSF    07.1
0092:  MOVLW  1E
0093:  MOVWF  44
0094:  CALL   038
0095:  BCF    07.1
0096:  MOVLW  32
0097:  MOVWF  44
0098:  CALL   038
....................                                  BUZZER_ON; delay_ms(30); BUZZER_OFF; break;
0099:  BSF    07.1
009A:  MOVLW  1E
009B:  MOVWF  44
009C:  CALL   038
009D:  BCF    07.1
009E:  GOTO   0DD
....................       case ACTION_REMINDER_CHIRP: BUZZER_ON; delay_ms(10); BUZZER_OFF; delay_ms(20);
009F:  BSF    07.1
00A0:  MOVLW  0A
00A1:  MOVWF  44
00A2:  CALL   038
00A3:  BCF    07.1
00A4:  MOVLW  14
00A5:  MOVWF  44
00A6:  CALL   038
....................                                  BUZZER_ON; delay_ms(10); BUZZER_OFF; break;
00A7:  BSF    07.1
00A8:  MOVLW  0A
00A9:  MOVWF  44
00AA:  CALL   038
00AB:  BCF    07.1
00AC:  GOTO   0DD
....................       case ACTION_ALARM_CHIRP:   for(int j=0; j<6; j++) { BUZZER_ON; delay_ms(80); BUZZER_OFF; delay_ms(40); } break;
00AD:  CLRF   42
00AE:  MOVF   42,W
00AF:  SUBLW  05
00B0:  BTFSS  03.0
00B1:  GOTO   0BC
00B2:  BSF    07.1
00B3:  MOVLW  50
00B4:  MOVWF  44
00B5:  CALL   038
00B6:  BCF    07.1
00B7:  MOVLW  28
00B8:  MOVWF  44
00B9:  CALL   038
00BA:  INCF   42,F
00BB:  GOTO   0AE
00BC:  GOTO   0DD
....................       case ACTION_SERVO_OPEN:    SERVO_HIGH; delay_us(2050); SERVO_LOW; delay_ms(18); break;
00BD:  BSF    07.2
00BE:  MOVLW  02
00BF:  MOVWF  44
00C0:  CALL   038
00C1:  MOVLW  32
00C2:  MOVWF  44
00C3:  CALL   04C
00C4:  BCF    07.2
00C5:  MOVLW  12
00C6:  MOVWF  44
00C7:  CALL   038
00C8:  GOTO   0DD
....................       case ACTION_SERVO_CLOSE:   SERVO_HIGH; delay_us(1496); delay_cycles(11); SERVO_LOW; delay_ms(18); break;
00C9:  BSF    07.2
00CA:  MOVLW  01
00CB:  MOVWF  44
00CC:  CALL   038
00CD:  MOVLW  02
00CE:  MOVWF  43
00CF:  MOVLW  F7
00D0:  MOVWF  44
00D1:  CALL   04C
00D2:  DECFSZ 43,F
00D3:  GOTO   0CF
00D4:  MOVLW  03
00D5:  MOVWF  77
00D6:  DECFSZ 77,F
00D7:  GOTO   0D6
00D8:  NOP
00D9:  BCF    07.2
00DA:  MOVLW  12
00DB:  MOVWF  44
00DC:  CALL   038
....................    }
00DD:  RETURN
.................... }
.................... 
.................... // ==================== FSM STATES ====================
.................... typedef enum {
....................     STATE_IDLE,
....................     STATE_TYPING,
....................     STATE_UNLOCKED,
....................     STATE_ALARM
.................... } SystemState;
.................... 
.................... SystemState current_state = STATE_IDLE;
.................... 
.................... int8  idx = 0;
.................... char  entered[6];
.................... int8  wrong_attempts = 0;
.................... int16 inactivity_timer = 0;
.................... char  last_key = 0;
.................... int1  reminder_sent = 0;
.................... 
.................... void go_to_idle() {
....................    current_state = STATE_IDLE;
*
00EB:  CLRF   28
....................    idx = 0;
00EC:  CLRF   29
....................    for(int i=0; i<6; i++) entered[i] = 0;
00ED:  CLRF   3F
00EE:  MOVF   3F,W
00EF:  SUBLW  05
00F0:  BTFSS  03.0
00F1:  GOTO   0F9
00F2:  MOVLW  2A
00F3:  ADDWF  3F,W
00F4:  MOVWF  04
00F5:  BCF    03.7
00F6:  CLRF   00
00F7:  INCF   3F,F
00F8:  GOTO   0EE
....................    GREEN_OFF;
00F9:  BCF    06.1
....................    for(int j=0; j<10; j++) do_action(ACTION_SERVO_CLOSE);
00FA:  CLRF   40
00FB:  MOVF   40,W
00FC:  SUBLW  09
00FD:  BTFSS  03.0
00FE:  GOTO   104
00FF:  MOVLW  08
0100:  MOVWF  41
0101:  CALL   05B
0102:  INCF   40,F
0103:  GOTO   0FB
....................    reminder_sent = 0;
0104:  BCF    34.0
0105:  RETURN
.................... }
.................... 
.................... // ==================== HIGH-LEVEL FUNCTIONS ====================
.................... // Logic Layer
.................... int1 password_match() {
....................    if (idx != PASS_LEN) return 0;
*
0201:  MOVF   29,W
0202:  SUBLW  04
0203:  BTFSC  03.2
0204:  GOTO   208
0205:  MOVLW  00
0206:  MOVWF  78
0207:  GOTO   220
....................    for (int8 i = 0; i < PASS_LEN; i++) {
0208:  CLRF   39
0209:  MOVF   39,W
020A:  SUBLW  03
020B:  BTFSS  03.0
020C:  GOTO   21E
....................       if (entered[i] != PASSWORD[i]) return 0;
020D:  MOVLW  2A
020E:  ADDWF  39,W
020F:  MOVWF  04
0210:  BCF    03.7
0211:  MOVF   00,W
0212:  MOVWF  3A
0213:  MOVF   39,W
0214:  CALL   02F
0215:  MOVWF  78
0216:  SUBWF  3A,W
0217:  BTFSC  03.2
0218:  GOTO   21C
0219:  MOVLW  00
021A:  MOVWF  78
021B:  GOTO   220
021C:  INCF   39,F
021D:  GOTO   209
....................    }
....................    return 1;
021E:  MOVLW  01
021F:  MOVWF  78
.................... }
.................... 
.................... void update_inactivity_timer() {
....................    inactivity_timer += 10;
*
0180:  MOVLW  0A
0181:  ADDWF  31,F
0182:  BTFSC  03.0
0183:  INCF   32,F
0184:  RETURN
.................... }
.................... void check_typing_timeout() {
....................    if (inactivity_timer >= 5000) {
0185:  MOVF   32,W
0186:  SUBLW  12
0187:  BTFSC  03.0
0188:  GOTO   1A0
0189:  XORLW  FF
018A:  BTFSS  03.2
018B:  GOTO   190
018C:  MOVF   31,W
018D:  SUBLW  87
018E:  BTFSC  03.0
018F:  GOTO   1A0
0190:  CLRF   27
0191:  BTFSC  0B.7
0192:  BSF    27.7
0193:  BCF    0B.7
....................       do_action(ACTION_ERROR_BEEP);
0194:  MOVLW  03
0195:  MOVWF  41
0196:  CALL   05B
0197:  BTFSC  27.7
0198:  BSF    0B.7
0199:  CLRF   27
019A:  BTFSC  0B.7
019B:  BSF    27.7
019C:  BCF    0B.7
....................       go_to_idle();
019D:  CALL   0EB
019E:  BTFSC  27.7
019F:  BSF    0B.7
....................    }
01A0:  BCF    0A.3
01A1:  BCF    0A.4
01A2:  GOTO   34C (RETURN)
.................... }
.................... 
.................... void check_unlocked_timeout() {
....................    if (inactivity_timer >= 15000) {
*
026E:  MOVF   32,W
026F:  SUBLW  39
0270:  BTFSC  03.0
0271:  GOTO   28A
0272:  XORLW  FF
0273:  BTFSS  03.2
0274:  GOTO   279
0275:  MOVF   31,W
0276:  SUBLW  97
0277:  BTFSC  03.0
0278:  GOTO   28A
0279:  CLRF   27
027A:  BTFSC  0B.7
027B:  BSF    27.7
027C:  BCF    0B.7
....................       go_to_idle();
027D:  CALL   0EB
027E:  BTFSC  27.7
027F:  BSF    0B.7
0280:  CLRF   27
0281:  BTFSC  0B.7
0282:  BSF    27.7
0283:  BCF    0B.7
....................       do_action(ACTION_READY_BEEP);
0284:  MOVLW  04
0285:  MOVWF  41
0286:  CALL   05B
0287:  BTFSC  27.7
0288:  BSF    0B.7
....................    }
0289:  GOTO   2A1
....................    else if (inactivity_timer >= 12000 && !reminder_sent) {
028A:  MOVF   32,W
028B:  SUBLW  2D
028C:  BTFSC  03.0
028D:  GOTO   2A1
028E:  XORLW  FF
028F:  BTFSS  03.2
0290:  GOTO   295
0291:  MOVF   31,W
0292:  SUBLW  DF
0293:  BTFSC  03.0
0294:  GOTO   2A1
0295:  BTFSC  34.0
0296:  GOTO   2A1
0297:  CLRF   27
0298:  BTFSC  0B.7
0299:  BSF    27.7
029A:  BCF    0B.7
....................       do_action(ACTION_REMINDER_CHIRP);
029B:  MOVLW  05
029C:  MOVWF  41
029D:  CALL   05B
029E:  BTFSC  27.7
029F:  BSF    0B.7
....................       reminder_sent = 1;
02A0:  BSF    34.0
....................    }
02A1:  BCF    0A.3
02A2:  BCF    0A.4
02A3:  GOTO   356 (RETURN)
.................... }
.................... //Application layer
.................... 
.................... 
.................... void go_to_unlocked() {
....................    current_state = STATE_UNLOCKED;
*
0223:  MOVLW  02
0224:  MOVWF  28
....................    wrong_attempts = 0;
0225:  CLRF   30
....................    inactivity_timer = 0;
0226:  CLRF   32
0227:  CLRF   31
....................    reminder_sent = 0;
0228:  BCF    34.0
....................    GREEN_ON;
0229:  BSF    06.1
022A:  CLRF   27
022B:  BTFSC  0B.7
022C:  BSF    27.7
022D:  BCF    0B.7
....................    do_action(ACTION_SUCCESS_BEEP);
022E:  MOVLW  02
022F:  MOVWF  41
0230:  CALL   05B
0231:  BTFSC  27.7
0232:  BSF    0B.7
....................    for(int j=0; j<10; j++) do_action(ACTION_SERVO_OPEN);
0233:  CLRF   39
0234:  MOVF   39,W
0235:  SUBLW  09
0236:  BTFSS  03.0
0237:  GOTO   243
0238:  CLRF   27
0239:  BTFSC  0B.7
023A:  BSF    27.7
023B:  BCF    0B.7
023C:  MOVLW  07
023D:  MOVWF  41
023E:  CALL   05B
023F:  BTFSC  27.7
0240:  BSF    0B.7
0241:  INCF   39,F
0242:  GOTO   234
.................... }
.................... 
.................... 
.................... void process_key_in_typing(char key) {
....................    if (key >= '0' && key <= '9') {
*
01A3:  MOVF   38,W
01A4:  SUBLW  2F
01A5:  BTFSC  03.0
01A6:  GOTO   1CB
01A7:  MOVF   38,W
01A8:  SUBLW  39
01A9:  BTFSS  03.0
01AA:  GOTO   1CB
....................       if (idx < PASS_LEN) {
01AB:  MOVF   29,W
01AC:  SUBLW  03
01AD:  BTFSS  03.0
01AE:  GOTO   1BF
....................          entered[idx++] = key;
01AF:  MOVF   29,W
01B0:  INCF   29,F
01B1:  ADDLW  2A
01B2:  MOVWF  04
01B3:  BCF    03.7
01B4:  MOVF   38,W
01B5:  MOVWF  00
01B6:  CLRF   27
01B7:  BTFSC  0B.7
01B8:  BSF    27.7
01B9:  BCF    0B.7
....................          do_action(ACTION_KEY_TICK);
01BA:  CLRF   41
01BB:  CALL   05B
01BC:  BTFSC  27.7
01BD:  BSF    0B.7
....................       } else {
01BE:  GOTO   1CA
....................          RED_ON; do_action(ACTION_ERROR_BEEP); RED_OFF;
01BF:  BSF    06.2
01C0:  CLRF   27
01C1:  BTFSC  0B.7
01C2:  BSF    27.7
01C3:  BCF    0B.7
01C4:  MOVLW  03
01C5:  MOVWF  41
01C6:  CALL   05B
01C7:  BTFSC  27.7
01C8:  BSF    0B.7
01C9:  BCF    06.2
....................       }
....................    }
01CA:  GOTO   26B
....................    else if (key == '*') {
01CB:  MOVF   38,W
01CC:  SUBLW  2A
01CD:  BTFSS  03.2
01CE:  GOTO   1FD
....................       // Use '*' as Backspace/Cancel
....................       if (idx > 0) {
01CF:  MOVF   29,F
01D0:  BTFSC  03.2
01D1:  GOTO   1EC
....................          idx--;
01D2:  DECF   29,F
....................          entered[idx] = 0;
01D3:  MOVLW  2A
01D4:  ADDWF  29,W
01D5:  MOVWF  04
01D6:  BCF    03.7
01D7:  CLRF   00
01D8:  CLRF   27
01D9:  BTFSC  0B.7
01DA:  BSF    27.7
01DB:  BCF    0B.7
....................          do_action(ACTION_DELETE_TICK);
01DC:  MOVLW  01
01DD:  MOVWF  41
01DE:  CALL   05B
01DF:  BTFSC  27.7
01E0:  BSF    0B.7
....................          if (idx == 0) go_to_idle();
01E1:  MOVF   29,F
01E2:  BTFSS  03.2
01E3:  GOTO   1EB
01E4:  CLRF   27
01E5:  BTFSC  0B.7
01E6:  BSF    27.7
01E7:  BCF    0B.7
01E8:  CALL   0EB
01E9:  BTFSC  27.7
01EA:  BSF    0B.7
....................       } else {
01EB:  GOTO   1FC
01EC:  CLRF   27
01ED:  BTFSC  0B.7
01EE:  BSF    27.7
01EF:  BCF    0B.7
....................          go_to_idle();
01F0:  CALL   0EB
01F1:  BTFSC  27.7
01F2:  BSF    0B.7
01F3:  CLRF   27
01F4:  BTFSC  0B.7
01F5:  BSF    27.7
01F6:  BCF    0B.7
....................          do_action(ACTION_ERROR_BEEP);
01F7:  MOVLW  03
01F8:  MOVWF  41
01F9:  CALL   05B
01FA:  BTFSC  27.7
01FB:  BSF    0B.7
....................       }
....................    }
01FC:  GOTO   26B
....................    else if (key == '#') {
01FD:  MOVF   38,W
01FE:  SUBLW  23
01FF:  BTFSS  03.2
0200:  GOTO   26B
....................       // Use '#' as Enter/Submit
....................       if (password_match()) {
*
0220:  MOVF   78,F
0221:  BTFSC  03.2
0222:  GOTO   244
....................          go_to_unlocked();
....................       } else {
*
0243:  GOTO   26B
....................          wrong_attempts++;
0244:  INCF   30,F
....................          RED_ON; do_action(ACTION_ERROR_BEEP); delay_ms(1000); RED_OFF;
0245:  BSF    06.2
0246:  CLRF   27
0247:  BTFSC  0B.7
0248:  BSF    27.7
0249:  BCF    0B.7
024A:  MOVLW  03
024B:  MOVWF  41
024C:  CALL   05B
024D:  BTFSC  27.7
024E:  BSF    0B.7
024F:  MOVLW  04
0250:  MOVWF  39
0251:  CLRF   27
0252:  BTFSC  0B.7
0253:  BSF    27.7
0254:  BCF    0B.7
0255:  MOVLW  FA
0256:  MOVWF  44
0257:  CALL   038
0258:  BTFSC  27.7
0259:  BSF    0B.7
025A:  DECFSZ 39,F
025B:  GOTO   251
025C:  BCF    06.2
....................          if (wrong_attempts >= MAX_WRONG) {
025D:  MOVF   30,W
025E:  SUBLW  02
025F:  BTFSC  03.0
0260:  GOTO   264
....................             current_state = STATE_ALARM;
0261:  MOVLW  03
0262:  MOVWF  28
....................          } else {
0263:  GOTO   26B
0264:  CLRF   27
0265:  BTFSC  0B.7
0266:  BSF    27.7
0267:  BCF    0B.7
....................             go_to_idle();
0268:  CALL   0EB
0269:  BTFSC  27.7
026A:  BSF    0B.7
....................          }
....................       }
....................    }
026B:  BCF    0A.3
026C:  BCF    0A.4
026D:  GOTO   353 (RETURN)
.................... }
.................... 
.................... void process_key_in_unlocked(char key) {
....................    if (key == '#') {
*
02A4:  MOVF   38,W
02A5:  SUBLW  23
02A6:  BTFSS  03.2
02A7:  GOTO   2B4
....................       // Keep unlocked timer reset
....................       inactivity_timer = 0;
02A8:  CLRF   32
02A9:  CLRF   31
02AA:  CLRF   27
02AB:  BTFSC  0B.7
02AC:  BSF    27.7
02AD:  BCF    0B.7
....................       do_action(ACTION_SUCCESS_BEEP);
02AE:  MOVLW  02
02AF:  MOVWF  41
02B0:  CALL   05B
02B1:  BTFSC  27.7
02B2:  BSF    0B.7
....................    }
02B3:  GOTO   2D2
....................    else if (key == '*') {
02B4:  MOVF   38,W
02B5:  SUBLW  2A
02B6:  BTFSS  03.2
02B7:  GOTO   2C9
02B8:  CLRF   27
02B9:  BTFSC  0B.7
02BA:  BSF    27.7
02BB:  BCF    0B.7
....................       // Manual Lock
....................       go_to_idle();
02BC:  CALL   0EB
02BD:  BTFSC  27.7
02BE:  BSF    0B.7
02BF:  CLRF   27
02C0:  BTFSC  0B.7
02C1:  BSF    27.7
02C2:  BCF    0B.7
....................       do_action(ACTION_READY_BEEP);
02C3:  MOVLW  04
02C4:  MOVWF  41
02C5:  CALL   05B
02C6:  BTFSC  27.7
02C7:  BSF    0B.7
....................    }
02C8:  GOTO   2D2
02C9:  CLRF   27
02CA:  BTFSC  0B.7
02CB:  BSF    27.7
02CC:  BCF    0B.7
....................    else do_action(ACTION_ERROR_BEEP);
02CD:  MOVLW  03
02CE:  MOVWF  41
02CF:  CALL   05B
02D0:  BTFSC  27.7
02D1:  BSF    0B.7
02D2:  BCF    0A.3
02D3:  BCF    0A.4
02D4:  GOTO   35B (RETURN)
.................... }
.................... 
.................... // ==================== KEYPAD SCANNER (UPDATED for 3x4) ====================
.................... char scan_matrix() {
*
0118:  CLRF   38
....................    char k = 0;
....................    
....................    // Row 1 (RD0)
....................    output_high(PIN_D0); delay_us(20);
0119:  BSF    08.0
011A:  MOVLW  21
011B:  MOVWF  77
011C:  DECFSZ 77,F
011D:  GOTO   11C
....................    if(input(PIN_D4)) k = '1'; else if(input(PIN_D5)) k = '2'; else if(input(PIN_D6)) k = '3';
011E:  BTFSS  08.4
011F:  GOTO   123
0120:  MOVLW  31
0121:  MOVWF  38
0122:  GOTO   12C
0123:  BTFSS  08.5
0124:  GOTO   128
0125:  MOVLW  32
0126:  MOVWF  38
0127:  GOTO   12C
0128:  BTFSS  08.6
0129:  GOTO   12C
012A:  MOVLW  33
012B:  MOVWF  38
....................    output_low(PIN_D0); if(k) return k;
012C:  BCF    08.0
012D:  MOVF   38,F
012E:  BTFSC  03.2
012F:  GOTO   133
0130:  MOVF   38,W
0131:  MOVWF  78
0132:  GOTO   17D
.................... 
....................    // Row 2 (RD1)
....................    output_high(PIN_D1); delay_us(20);
0133:  BSF    08.1
0134:  MOVLW  21
0135:  MOVWF  77
0136:  DECFSZ 77,F
0137:  GOTO   136
....................    if(input(PIN_D4)) k = '4'; else if(input(PIN_D5)) k = '5'; else if(input(PIN_D6)) k = '6';
0138:  BTFSS  08.4
0139:  GOTO   13D
013A:  MOVLW  34
013B:  MOVWF  38
013C:  GOTO   146
013D:  BTFSS  08.5
013E:  GOTO   142
013F:  MOVLW  35
0140:  MOVWF  38
0141:  GOTO   146
0142:  BTFSS  08.6
0143:  GOTO   146
0144:  MOVLW  36
0145:  MOVWF  38
....................    output_low(PIN_D1); if(k) return k;
0146:  BCF    08.1
0147:  MOVF   38,F
0148:  BTFSC  03.2
0149:  GOTO   14D
014A:  MOVF   38,W
014B:  MOVWF  78
014C:  GOTO   17D
.................... 
....................    // Row 3 (RD2)
....................    output_high(PIN_D2); delay_us(20);
014D:  BSF    08.2
014E:  MOVLW  21
014F:  MOVWF  77
0150:  DECFSZ 77,F
0151:  GOTO   150
....................    if(input(PIN_D4)) k = '7'; else if(input(PIN_D5)) k = '8'; else if(input(PIN_D6)) k = '9';
0152:  BTFSS  08.4
0153:  GOTO   157
0154:  MOVLW  37
0155:  MOVWF  38
0156:  GOTO   160
0157:  BTFSS  08.5
0158:  GOTO   15C
0159:  MOVLW  38
015A:  MOVWF  38
015B:  GOTO   160
015C:  BTFSS  08.6
015D:  GOTO   160
015E:  MOVLW  39
015F:  MOVWF  38
....................    output_low(PIN_D2); if(k) return k;
0160:  BCF    08.2
0161:  MOVF   38,F
0162:  BTFSC  03.2
0163:  GOTO   167
0164:  MOVF   38,W
0165:  MOVWF  78
0166:  GOTO   17D
.................... 
....................    // Row 4 (RD3)
....................    output_high(PIN_D3); delay_us(20);
0167:  BSF    08.3
0168:  MOVLW  21
0169:  MOVWF  77
016A:  DECFSZ 77,F
016B:  GOTO   16A
....................    if(input(PIN_D4)) k = '*'; else if(input(PIN_D5)) k = '0'; else if(input(PIN_D6)) k = '#';
016C:  BTFSS  08.4
016D:  GOTO   171
016E:  MOVLW  2A
016F:  MOVWF  38
0170:  GOTO   17A
0171:  BTFSS  08.5
0172:  GOTO   176
0173:  MOVLW  30
0174:  MOVWF  38
0175:  GOTO   17A
0176:  BTFSS  08.6
0177:  GOTO   17A
0178:  MOVLW  23
0179:  MOVWF  38
....................    output_low(PIN_D3);
017A:  BCF    08.3
....................    
....................    return k;
017B:  MOVF   38,W
017C:  MOVWF  78
017D:  BCF    0A.3
017E:  BCF    0A.4
017F:  GOTO   314 (RETURN)
.................... }
.................... 
.................... // ==================== EMERGENCY RESET ====================
.................... #int_ext
.................... void ext_isr(void) {
....................    wrong_attempts = 0;
*
0106:  CLRF   30
....................    go_to_idle();
0107:  CALL   0EB
....................    GREEN_ON; delay_ms(300); GREEN_OFF;
0108:  BSF    06.1
0109:  MOVLW  02
010A:  MOVWF  3F
010B:  MOVLW  96
010C:  MOVWF  44
010D:  CALL   038
010E:  DECFSZ 3F,F
010F:  GOTO   10B
0110:  BCF    06.1
....................    do_action(ACTION_READY_BEEP);
0111:  MOVLW  04
0112:  MOVWF  41
0113:  CALL   05B
0114:  BCF    0B.1
0115:  BCF    0A.3
0116:  BCF    0A.4
0117:  GOTO   01B
.................... }
.................... 
.................... // ==================== MAIN ====================
.................... void main() {
*
02D5:  MOVF   03,W
02D6:  ANDLW  1F
02D7:  MOVWF  03
02D8:  CLRF   28
02D9:  CLRF   29
02DA:  CLRF   30
02DB:  CLRF   32
02DC:  CLRF   31
02DD:  CLRF   33
02DE:  BCF    34.0
02DF:  BSF    03.5
02E0:  BSF    03.6
02E1:  MOVF   09,W
02E2:  ANDLW  C0
02E3:  MOVWF  09
02E4:  BCF    03.6
02E5:  BCF    1F.4
02E6:  BCF    1F.5
02E7:  MOVLW  00
02E8:  BSF    03.6
02E9:  MOVWF  08
02EA:  BCF    03.5
02EB:  CLRF   07
02EC:  CLRF   08
02ED:  CLRF   09
02EE:  BCF    03.7
....................    ANSEL = 0x00; ANSELH = 0x00;
02EF:  BSF    03.5
02F0:  CLRF   08
02F1:  CLRF   09
....................    
....................    set_tris_b(0x01); 
02F2:  MOVLW  01
02F3:  BCF    03.6
02F4:  MOVWF  06
....................    set_tris_c(0x00); 
02F5:  MOVLW  00
02F6:  MOVWF  07
....................    // TRISD: RD4, RD5, RD6 as inputs (columns), RD0-RD3 as outputs (rows)
....................    set_tris_d(0x70); 
02F7:  MOVLW  70
02F8:  MOVWF  08
....................    
....................    output_b(0x00); output_c(0x00); output_d(0x00);
02F9:  BCF    03.5
02FA:  CLRF   06
02FB:  CLRF   07
02FC:  CLRF   08
.................... 
....................    enable_interrupts(INT_EXT);
02FD:  BSF    0B.4
....................    ext_int_edge(L_TO_H);
02FE:  BSF    03.5
02FF:  BSF    01.6
....................    enable_interrupts(GLOBAL);
0300:  MOVLW  C0
0301:  BCF    03.5
0302:  IORWF  0B,F
0303:  CLRF   27
0304:  BTFSC  0B.7
0305:  BSF    27.7
0306:  BCF    0B.7
.................... 
....................    go_to_idle();
0307:  CALL   0EB
0308:  BTFSC  27.7
0309:  BSF    0B.7
030A:  CLRF   27
030B:  BTFSC  0B.7
030C:  BSF    27.7
030D:  BCF    0B.7
....................    do_action(ACTION_READY_BEEP);
030E:  MOVLW  04
030F:  MOVWF  41
0310:  CALL   05B
0311:  BTFSC  27.7
0312:  BSF    0B.7
.................... 
....................    while (TRUE) {
....................       char key = scan_matrix();
....................       int1 key_pressed = (key != 0 && last_key == 0);
0313:  GOTO   118
0314:  MOVF   78,W
0315:  MOVWF  35
0316:  BCF    36.0
0317:  MOVF   35,F
0318:  BTFSC  03.2
0319:  GOTO   31D
031A:  MOVF   33,F
031B:  BTFSC  03.2
031C:  BSF    36.0
....................       last_key = key;
031D:  MOVF   35,W
031E:  MOVWF  33
.................... 
....................       switch (current_state) {
031F:  MOVF   28,W
0320:  BTFSC  03.2
0321:  GOTO   32C
0322:  XORLW  01
0323:  BTFSC  03.2
0324:  GOTO   34A
0325:  XORLW  03
0326:  BTFSC  03.2
0327:  GOTO   354
0328:  XORLW  01
0329:  BTFSC  03.2
032A:  GOTO   35C
032B:  GOTO   380
....................          case STATE_IDLE:
....................             if (key_pressed && (key >= '0' && key <= '9')) {
032C:  BTFSS  36.0
032D:  GOTO   349
032E:  MOVF   35,W
032F:  SUBLW  2F
0330:  BTFSC  03.0
0331:  GOTO   349
0332:  MOVF   35,W
0333:  SUBLW  39
0334:  BTFSS  03.0
0335:  GOTO   349
....................                current_state = STATE_TYPING;
0336:  MOVLW  01
0337:  MOVWF  28
....................                inactivity_timer = 0;
0338:  CLRF   32
0339:  CLRF   31
....................                entered[idx++] = key;
033A:  MOVF   29,W
033B:  INCF   29,F
033C:  ADDLW  2A
033D:  MOVWF  04
033E:  BCF    03.7
033F:  MOVF   35,W
0340:  MOVWF  00
0341:  CLRF   27
0342:  BTFSC  0B.7
0343:  BSF    27.7
0344:  BCF    0B.7
....................                do_action(ACTION_KEY_TICK);
0345:  CLRF   41
0346:  CALL   05B
0347:  BTFSC  27.7
0348:  BSF    0B.7
....................             }
....................             break;
0349:  GOTO   387
.................... 
....................          case STATE_TYPING:
....................             update_inactivity_timer();
034A:  CALL   180
....................             check_typing_timeout();
034B:  GOTO   185
....................             if (key_pressed) {
034C:  BTFSS  36.0
034D:  GOTO   353
....................                inactivity_timer = 0;
034E:  CLRF   32
034F:  CLRF   31
....................                process_key_in_typing(key);
0350:  MOVF   35,W
0351:  MOVWF  38
0352:  GOTO   1A3
....................             }
....................             break;
0353:  GOTO   387
.................... 
....................          case STATE_UNLOCKED:
....................             update_inactivity_timer();
0354:  CALL   180
....................             check_unlocked_timeout();
0355:  GOTO   26E
....................             if (key_pressed) process_key_in_unlocked(key);
0356:  BTFSS  36.0
0357:  GOTO   35B
0358:  MOVF   35,W
0359:  MOVWF  38
035A:  GOTO   2A4
....................             break;
035B:  GOTO   387
.................... 
....................          case STATE_ALARM:
....................             for(int i = 0; i < 15; i++) {
035C:  CLRF   37
035D:  MOVF   37,W
035E:  SUBLW  0E
035F:  BTFSS  03.0
0360:  GOTO   377
....................                RED_ON;  do_action(ACTION_ALARM_CHIRP);
0361:  BSF    06.2
0362:  CLRF   27
0363:  BTFSC  0B.7
0364:  BSF    27.7
0365:  BCF    0B.7
0366:  MOVLW  06
0367:  MOVWF  41
0368:  CALL   05B
0369:  BTFSC  27.7
036A:  BSF    0B.7
....................                RED_OFF; do_action(ACTION_ALARM_CHIRP);
036B:  BCF    06.2
036C:  CLRF   27
036D:  BTFSC  0B.7
036E:  BSF    27.7
036F:  BCF    0B.7
0370:  MOVLW  06
0371:  MOVWF  41
0372:  CALL   05B
0373:  BTFSC  27.7
0374:  BSF    0B.7
0375:  INCF   37,F
0376:  GOTO   35D
....................             }
....................             wrong_attempts = 0;
0377:  CLRF   30
0378:  CLRF   27
0379:  BTFSC  0B.7
037A:  BSF    27.7
037B:  BCF    0B.7
....................             go_to_idle();
037C:  CALL   0EB
037D:  BTFSC  27.7
037E:  BSF    0B.7
....................             break;
037F:  GOTO   387
0380:  CLRF   27
0381:  BTFSC  0B.7
0382:  BSF    27.7
0383:  BCF    0B.7
.................... 
....................          default:
....................             go_to_idle();
0384:  CALL   0EB
0385:  BTFSC  27.7
0386:  BSF    0B.7
....................             break;
0387:  CLRF   27
0388:  BTFSC  0B.7
0389:  BSF    27.7
038A:  BCF    0B.7
....................       }
....................       delay_ms(10);
038B:  MOVLW  0A
038C:  MOVWF  44
038D:  CALL   038
038E:  BTFSC  27.7
038F:  BSF    0B.7
0390:  GOTO   313
....................    }
.................... }
0391:  SLEEP

Configuration Fuses:
   Word  1: 2FE2   HS NOWDT PUT MCLR NOPROTECT NOCPD BROWNOUT IESO FCMEN NOLVP NODEBUG
   Word  2: 3FFF   BORV40 NOWRT
